; Function Attrs: mustprogress uwtable
define void @_ZN7Imf_3_211StdIFStream5clearEv(ptr nocapture noundef nonnull readonly align 8 dereferenceable(49) %this) unnamed_addr #3 align 2 {
entry:
  %_is = getelementptr inbounds i8, ptr %this, i64 40
  %0 = load ptr, ptr %_is, align 8
  %vtable = load ptr, ptr %0, align 8
  %vbase.offset.ptr = getelementptr i8, ptr %vtable, i64 -24
  %vbase.offset = load i64, ptr %vbase.offset.ptr, align 8
  %add.ptr = getelementptr inbounds i8, ptr %0, i64 %vbase.offset
  tail call void @_ZNSt9basic_iosIcSt11char_traitsIcEE5clearESt12_Ios_Iostate(ptr noundef nonnull align 8 dereferenceable(264) %add.ptr, i32 noundef 0)
  ret void
}